target datalayout = "e-m:e-p270:32:32-p271:32:32-p272:64:64-i64:64-i128:128-f80:128-n8:16:32:64-S128"
target triple = "x86_64-pc-linux-gnu"

%"class.vas::ot::Tracker::InitParameters" = type { i32, i32, i32, i32, i8, float }

; Function Attrs: mustprogress uwtable
define hidden void @_ZN3vas2ot24ZeroTermImagelessTrackerC2ENS0_7Tracker14InitParametersE(ptr noundef nonnull align 8 dereferenceable(72) %0, ptr noundef byval(%"class.vas::ot::Tracker::InitParameters") align 8 %1) unnamed_addr #0 align 2 {
  %3 = alloca ptr, align 8
  store ptr %0, ptr %3, align 8, !tbaa !3
  %4 = load ptr, ptr %3, align 8
  %5 = getelementptr inbounds nuw %"class.vas::ot::Tracker::InitParameters", ptr %1, i32 0, i32 1
  %6 = load i32, ptr %5, align 4, !tbaa !8
  %7 = getelementptr inbounds nuw %"class.vas::ot::Tracker::InitParameters", ptr %1, i32 0, i32 5
  %8 = load float, ptr %7, align 4, !tbaa !15
  %9 = getelementptr inbounds nuw %"class.vas::ot::Tracker::InitParameters", ptr %1, i32 0, i32 3
  %10 = load i32, ptr %9, align 4, !tbaa !16
  %11 = getelementptr inbounds nuw %"class.vas::ot::Tracker::InitParameters", ptr %1, i32 0, i32 4
  %12 = load i8, ptr %11, align 8, !tbaa !17, !range !18, !noundef !19
  %13 = trunc i8 %12 to i1
  call void @_ZN3vas2ot7TrackerC2EifNS_11ColorFormatEb(ptr noundef nonnull align 8 dereferenceable(72) %4, i32 noundef %6, float noundef %8, i32 noundef %10, i1 noundef zeroext %13)
  store ptr getelementptr inbounds inrange(-16, 24) ({ [5 x ptr] }, ptr @_ZTVN3vas2ot24ZeroTermImagelessTrackerE, i32 0, i32 0, i32 2), ptr %4, align 8, !tbaa !20
  ret void
}