; Function Attrs: mustprogress uwtable
define hidden void @_ZN3vas2ot24ZeroTermImagelessTrackerC2ENS0_7Tracker14InitParametersE(ptr noundef nonnull align 8 dereferenceable(72) %0, ptr noundef readonly byval(%"class.vas::ot::Tracker::InitParameters") align 8 captures(none) %1) unnamed_addr #0 align 2 {
  %3 = getelementptr inbounds nuw i8, ptr %1, i64 4
  %4 = load i32, ptr %3, align 4, !tbaa !3
  %5 = getelementptr inbounds nuw i8, ptr %1, i64 20
  %6 = load float, ptr %5, align 4, !tbaa !12
  %7 = getelementptr inbounds nuw i8, ptr %1, i64 12
  %8 = load i32, ptr %7, align 4, !tbaa !13
  %9 = getelementptr inbounds nuw i8, ptr %1, i64 16
  %10 = load i8, ptr %9, align 8, !tbaa !14, !range !15, !noundef !16
  %11 = trunc nuw i8 %10 to i1
  tail call void @_ZN3vas2ot7TrackerC2EifNS_11ColorFormatEb(ptr noundef nonnull align 8 dereferenceable(72) %0, i32 noundef %4, float noundef %6, i32 noundef %8, i1 noundef zeroext %11)
  store ptr getelementptr inbounds nuw inrange(-16, 24) (i8, ptr @_ZTVN3vas2ot24ZeroTermImagelessTrackerE, i64 16), ptr %0, align 8, !tbaa !17
  ret void
}